target datalayout = "e-m:e-p270:32:32-p271:32:32-p272:64:64-i64:64-i128:128-f80:128-n8:16:32:64-S128"
target triple = "x86_64-pc-linux-gnu"

%struct.partition_info = type { ptr, ptr, ptr, ptr, ptr, ptr, ptr, i16, i32, i64, i32, ptr, ptr, i32, i32, ptr, ptr, i32, i32, i64, i32, i16, i32, i32, ptr, ptr, ptr, ptr, i16, i16, i16, i16, ptr, i16, i16, i32, i16, i32, i32, ptr }

@exit_code = external global i32, align 4
@.str.81 = private unnamed_addr constant [29 x i8] c"PartitionName must be given.\00", align 1
@.str.82 = private unnamed_addr constant [21 x i8] c"No changes specified\00", align 1

; Function Attrs: nounwind uwtable
define dso_local i32 @scontrol_update_part(i32 noundef %0, ptr noundef %1) #0 {
  %3 = alloca i32, align 4
  %4 = alloca i32, align 4
  %5 = alloca ptr, align 8
  %6 = alloca i32, align 4
  %7 = alloca %struct.partition_info, align 8
  %8 = alloca i32, align 4
  %9 = alloca i32, align 4
  store i32 %0, ptr %4, align 4
  store ptr %1, ptr %5, align 8
  call void @llvm.lifetime.start.p0(i64 4, ptr %6) #6
  store i32 0, ptr %6, align 4
  call void @llvm.lifetime.start.p0(i64 232, ptr %7) #6
  call void @llvm.lifetime.start.p0(i64 4, ptr %8) #6
  call void @slurm_init_part_desc_msg(ptr noundef %7)
  %10 = load i32, ptr %4, align 4
  %11 = load ptr, ptr %5, align 8
  %12 = call i32 @scontrol_parse_part_options(i32 noundef %10, ptr noundef %11, ptr noundef %6, ptr noundef %7)
  store i32 %12, ptr %8, align 4
  %13 = load i32, ptr %8, align 4
  %14 = icmp ne i32 %13, 0
  br i1 %14, label %15, label %17

15:                                               ; preds = %2
  %16 = load i32, ptr %8, align 4
  store i32 %16, ptr %3, align 4
  store i32 1, ptr %9, align 4
  br label %35

17:                                               ; preds = %2
  %18 = getelementptr inbounds nuw %struct.partition_info, ptr %7, i32 0, i32 24
  %19 = load ptr, ptr %18, align 8
  %20 = icmp eq ptr %19, null
  br i1 %20, label %21, label %23

21:                                               ; preds = %17
  store i32 1, ptr @exit_code, align 4
  %22 = call i32 (ptr, ...) @error(ptr noundef @.str.81)
  store i32 0, ptr %3, align 4
  store i32 1, ptr %9, align 4
  br label %35

23:                                               ; preds = %17
  %24 = load i32, ptr %6, align 4
  %25 = icmp sle i32 %24, 1
  br i1 %25, label %26, label %28

26:                                               ; preds = %23
  store i32 1, ptr @exit_code, align 4
  %27 = call i32 (ptr, ...) @error(ptr noundef @.str.82)
  store i32 0, ptr %3, align 4
  store i32 1, ptr %9, align 4
  br label %35

28:                                               ; preds = %23
  %29 = call i32 @slurm_update_partition(ptr noundef %7)
  %30 = icmp ne i32 %29, 0
  br i1 %30, label %31, label %34

31:                                               ; preds = %28
  store i32 1, ptr @exit_code, align 4
  %32 = call ptr @__errno_location() #8
  %33 = load i32, ptr %32, align 4
  store i32 %33, ptr %3, align 4
  store i32 1, ptr %9, align 4
  br label %35

34:                                               ; preds = %28
  store i32 0, ptr %3, align 4
  store i32 1, ptr %9, align 4
  br label %35

35:                                               ; preds = %34, %31, %26, %21, %15
  call void @llvm.lifetime.end.p0(i64 4, ptr %8) #6
  call void @llvm.lifetime.end.p0(i64 232, ptr %7) #6
  call void @llvm.lifetime.end.p0(i64 4, ptr %6) #6
  %36 = load i32, ptr %3, align 4
  ret i32 %36
}