; Function Attrs: nounwind uwtable
define dso_local i32 @scontrol_update_part(i32 noundef %0, ptr noundef readonly captures(none) %1) local_unnamed_addr #0 {
  %3 = alloca i32, align 4
  %4 = alloca %struct.partition_info, align 8
  call void @llvm.lifetime.start.p0(i64 4, ptr nonnull %3) #7
  store i32 0, ptr %3, align 4
  call void @llvm.lifetime.start.p0(i64 232, ptr nonnull %4) #7
  call void @slurm_init_part_desc_msg(ptr noundef nonnull %4) #7
  %5 = call i32 @scontrol_parse_part_options(i32 noundef %0, ptr noundef %1, ptr noundef nonnull %3, ptr noundef nonnull %4)
  %.not = icmp eq i32 %5, 0
  br i1 %.not, label %6, label %22

6:                                                ; preds = %2
  %7 = getelementptr inbounds nuw i8, ptr %4, i64 152
  %8 = load ptr, ptr %7, align 8
  %9 = icmp eq ptr %8, null
  br i1 %9, label %10, label %12

10:                                               ; preds = %6
  store i32 1, ptr @exit_code, align 4
  %11 = call i32 (ptr, ...) @error(ptr noundef nonnull @.str.81) #7
  br label %22

12:                                               ; preds = %6
  %13 = load i32, ptr %3, align 4
  %14 = icmp slt i32 %13, 2
  br i1 %14, label %15, label %17

15:                                               ; preds = %12
  store i32 1, ptr @exit_code, align 4
  %16 = call i32 (ptr, ...) @error(ptr noundef nonnull @.str.82) #7
  br label %22

17:                                               ; preds = %12
  %18 = call i32 @slurm_update_partition(ptr noundef nonnull %4) #7
  %.not5 = icmp eq i32 %18, 0
  br i1 %.not5, label %22, label %19

19:                                               ; preds = %17
  store i32 1, ptr @exit_code, align 4
  %20 = tail call ptr @__errno_location() #9
  %21 = load i32, ptr %20, align 4
  br label %22

22:                                               ; preds = %17, %2, %19, %15, %10
  %.0 = phi i32 [ 0, %10 ], [ 0, %15 ], [ %21, %19 ], [ -1, %2 ], [ 0, %17 ]
  call void @llvm.lifetime.end.p0(i64 232, ptr nonnull %4) #7
  call void @llvm.lifetime.end.p0(i64 4, ptr nonnull %3) #7
  ret i32 %.0
}